target datalayout = "e-m:e-p270:32:32-p271:32:32-p272:64:64-i64:64-i128:128-f80:128-n8:16:32:64-S128"
target triple = "x86_64-pc-linux-gnu"

%struct.rlglData = type { ptr, %struct.rlRenderBatch, %struct.anon, %struct.anon.0 }
%struct.rlRenderBatch = type { i32, i32, ptr, ptr, i32, float }
%struct.anon = type { i32, float, float, float, float, float, i8, i8, i8, i8, i32, ptr, %struct.Matrix, %struct.Matrix, %struct.Matrix, i8, [32 x %struct.Matrix], i32, i32, [4 x i32], i32, i32, i32, ptr, i32, ptr, i8, [2 x %struct.Matrix], [2 x %struct.Matrix], i32, i32, i32, i32, i32, i32, i32, i32, i32, i32, i8, i32, i32 }
%struct.Matrix = type { float, float, float, float, float, float, float, float, float, float, float, float, float, float, float, float }
%struct.anon.0 = type { i8, i8, i8, i8, i8, i8, i8, i8, i8, i8, i8, i8, i8, i8, i8, i8, float, i32 }
%struct.rlDrawCall = type { i32, i32, i32, i32 }
%struct.rlVertexBuffer = type { i32, ptr, ptr, ptr, ptr, ptr, i32, [5 x i32] }

@RLGL = internal global %struct.rlglData zeroinitializer, align 8

; Function Attrs: nounwind uwtable
define zeroext i1 @rlCheckRenderBatchLimit(i32 noundef %0) #0 {
  %2 = alloca i32, align 4
  %3 = alloca i8, align 1
  %4 = alloca i32, align 4
  %5 = alloca i32, align 4
  store i32 %0, ptr %2, align 4
  call void @llvm.lifetime.start.p0(i64 1, ptr %3) #16
  store i8 0, ptr %3, align 1
  %6 = load i32, ptr getelementptr inbounds nuw (%struct.rlglData, ptr @RLGL, i32 0, i32 2), align 8
  %7 = load i32, ptr %2, align 4
  %8 = add nsw i32 %6, %7
  %9 = load ptr, ptr @RLGL, align 8
  %10 = getelementptr inbounds nuw %struct.rlRenderBatch, ptr %9, i32 0, i32 2
  %11 = load ptr, ptr %10, align 8
  %12 = load ptr, ptr @RLGL, align 8
  %13 = getelementptr inbounds nuw %struct.rlRenderBatch, ptr %12, i32 0, i32 1
  %14 = load i32, ptr %13, align 4
  %15 = sext i32 %14 to i64
  %16 = getelementptr inbounds %struct.rlVertexBuffer, ptr %11, i64 %15
  %17 = getelementptr inbounds nuw %struct.rlVertexBuffer, ptr %16, i32 0, i32 0
  %18 = load i32, ptr %17, align 8
  %19 = mul nsw i32 %18, 4
  %20 = icmp sge i32 %8, %19
  br i1 %20, label %21, label %67

21:                                               ; preds = %1
  store i8 1, ptr %3, align 1
  call void @llvm.lifetime.start.p0(i64 4, ptr %4) #16
  %22 = load ptr, ptr @RLGL, align 8
  %23 = getelementptr inbounds nuw %struct.rlRenderBatch, ptr %22, i32 0, i32 3
  %24 = load ptr, ptr %23, align 8
  %25 = load ptr, ptr @RLGL, align 8
  %26 = getelementptr inbounds nuw %struct.rlRenderBatch, ptr %25, i32 0, i32 4
  %27 = load i32, ptr %26, align 8
  %28 = sub nsw i32 %27, 1
  %29 = sext i32 %28 to i64
  %30 = getelementptr inbounds %struct.rlDrawCall, ptr %24, i64 %29
  %31 = getelementptr inbounds nuw %struct.rlDrawCall, ptr %30, i32 0, i32 0
  %32 = load i32, ptr %31, align 4
  store i32 %32, ptr %4, align 4
  call void @llvm.lifetime.start.p0(i64 4, ptr %5) #16
  %33 = load ptr, ptr @RLGL, align 8
  %34 = getelementptr inbounds nuw %struct.rlRenderBatch, ptr %33, i32 0, i32 3
  %35 = load ptr, ptr %34, align 8
  %36 = load ptr, ptr @RLGL, align 8
  %37 = getelementptr inbounds nuw %struct.rlRenderBatch, ptr %36, i32 0, i32 4
  %38 = load i32, ptr %37, align 8
  %39 = sub nsw i32 %38, 1
  %40 = sext i32 %39 to i64
  %41 = getelementptr inbounds %struct.rlDrawCall, ptr %35, i64 %40
  %42 = getelementptr inbounds nuw %struct.rlDrawCall, ptr %41, i32 0, i32 3
  %43 = load i32, ptr %42, align 4
  store i32 %43, ptr %5, align 4
  %44 = load ptr, ptr @RLGL, align 8
  call void @rlDrawRenderBatch(ptr noundef %44)
  %45 = load i32, ptr %4, align 4
  %46 = load ptr, ptr @RLGL, align 8
  %47 = getelementptr inbounds nuw %struct.rlRenderBatch, ptr %46, i32 0, i32 3
  %48 = load ptr, ptr %47, align 8
  %49 = load ptr, ptr @RLGL, align 8
  %50 = getelementptr inbounds nuw %struct.rlRenderBatch, ptr %49, i32 0, i32 4
  %51 = load i32, ptr %50, align 8
  %52 = sub nsw i32 %51, 1
  %53 = sext i32 %52 to i64
  %54 = getelementptr inbounds %struct.rlDrawCall, ptr %48, i64 %53
  %55 = getelementptr inbounds nuw %struct.rlDrawCall, ptr %54, i32 0, i32 0
  store i32 %45, ptr %55, align 4
  %56 = load i32, ptr %5, align 4
  %57 = load ptr, ptr @RLGL, align 8
  %58 = getelementptr inbounds nuw %struct.rlRenderBatch, ptr %57, i32 0, i32 3
  %59 = load ptr, ptr %58, align 8
  %60 = load ptr, ptr @RLGL, align 8
  %61 = getelementptr inbounds nuw %struct.rlRenderBatch, ptr %60, i32 0, i32 4
  %62 = load i32, ptr %61, align 8
  %63 = sub nsw i32 %62, 1
  %64 = sext i32 %63 to i64
  %65 = getelementptr inbounds %struct.rlDrawCall, ptr %59, i64 %64
  %66 = getelementptr inbounds nuw %struct.rlDrawCall, ptr %65, i32 0, i32 3
  store i32 %56, ptr %66, align 4
  call void @llvm.lifetime.end.p0(i64 4, ptr %5) #16
  call void @llvm.lifetime.end.p0(i64 4, ptr %4) #16
  br label %67

67:                                               ; preds = %21, %1
  %68 = load i8, ptr %3, align 1, !range !3, !noundef !4
  %69 = trunc i8 %68 to i1
  call void @llvm.lifetime.end.p0(i64 1, ptr %3) #16
  ret i1 %69
}

; Function Attrs: nounwind uwtable
define void @rlSetTexture(i32 noundef %0) #0 {
  %2 = alloca i32, align 4
  store i32 %0, ptr %2, align 4
  %3 = load i32, ptr %2, align 4
  %4 = icmp eq i32 %3, 0
  br i1 %4, label %5, label %22

5:                                                ; preds = %1
  %6 = load i32, ptr getelementptr inbounds nuw (%struct.rlglData, ptr @RLGL, i32 0, i32 2), align 8
  %7 = load ptr, ptr @RLGL, align 8
  %8 = getelementptr inbounds nuw %struct.rlRenderBatch, ptr %7, i32 0, i32 2
  %9 = load ptr, ptr %8, align 8
  %10 = load ptr, ptr @RLGL, align 8
  %11 = getelementptr inbounds nuw %struct.rlRenderBatch, ptr %10, i32 0, i32 1
  %12 = load i32, ptr %11, align 4
  %13 = sext i32 %12 to i64
  %14 = getelementptr inbounds %struct.rlVertexBuffer, ptr %9, i64 %13
  %15 = getelementptr inbounds nuw %struct.rlVertexBuffer, ptr %14, i32 0, i32 0
  %16 = load i32, ptr %15, align 8
  %17 = mul nsw i32 %16, 4
  %18 = icmp sge i32 %6, %17
  br i1 %18, label %19, label %21

19:                                               ; preds = %5
  %20 = load ptr, ptr @RLGL, align 8
  call void @rlDrawRenderBatch(ptr noundef %20)
  br label %21

21:                                               ; preds = %19, %5
  br label %239

22:                                               ; preds = %1
  %23 = load ptr, ptr @RLGL, align 8
  %24 = getelementptr inbounds nuw %struct.rlRenderBatch, ptr %23, i32 0, i32 3
  %25 = load ptr, ptr %24, align 8
  %26 = load ptr, ptr @RLGL, align 8
  %27 = getelementptr inbounds nuw %struct.rlRenderBatch, ptr %26, i32 0, i32 4
  %28 = load i32, ptr %27, align 8
  %29 = sub nsw i32 %28, 1
  %30 = sext i32 %29 to i64
  %31 = getelementptr inbounds %struct.rlDrawCall, ptr %25, i64 %30
  %32 = getelementptr inbounds nuw %struct.rlDrawCall, ptr %31, i32 0, i32 3
  %33 = load i32, ptr %32, align 4
  %34 = load i32, ptr %2, align 4
  %35 = icmp ne i32 %33, %34
  br i1 %35, label %36, label %238

36:                                               ; preds = %22
  %37 = load ptr, ptr @RLGL, align 8
  %38 = getelementptr inbounds nuw %struct.rlRenderBatch, ptr %37, i32 0, i32 3
  %39 = load ptr, ptr %38, align 8
  %40 = load ptr, ptr @RLGL, align 8
  %41 = getelementptr inbounds nuw %struct.rlRenderBatch, ptr %40, i32 0, i32 4
  %42 = load i32, ptr %41, align 8
  %43 = sub nsw i32 %42, 1
  %44 = sext i32 %43 to i64
  %45 = getelementptr inbounds %struct.rlDrawCall, ptr %39, i64 %44
  %46 = getelementptr inbounds nuw %struct.rlDrawCall, ptr %45, i32 0, i32 1
  %47 = load i32, ptr %46, align 4
  %48 = icmp sgt i32 %47, 0
  br i1 %48, label %49, label %209

49:                                               ; preds = %36
  %50 = load ptr, ptr @RLGL, align 8
  %51 = getelementptr inbounds nuw %struct.rlRenderBatch, ptr %50, i32 0, i32 3
  %52 = load ptr, ptr %51, align 8
  %53 = load ptr, ptr @RLGL, align 8
  %54 = getelementptr inbounds nuw %struct.rlRenderBatch, ptr %53, i32 0, i32 4
  %55 = load i32, ptr %54, align 8
  %56 = sub nsw i32 %55, 1
  %57 = sext i32 %56 to i64
  %58 = getelementptr inbounds %struct.rlDrawCall, ptr %52, i64 %57
  %59 = getelementptr inbounds nuw %struct.rlDrawCall, ptr %58, i32 0, i32 0
  %60 = load i32, ptr %59, align 4
  %61 = icmp eq i32 %60, 1
  br i1 %61, label %62, label %112

62:                                               ; preds = %49
  %63 = load ptr, ptr @RLGL, align 8
  %64 = getelementptr inbounds nuw %struct.rlRenderBatch, ptr %63, i32 0, i32 3
  %65 = load ptr, ptr %64, align 8
  %66 = load ptr, ptr @RLGL, align 8
  %67 = getelementptr inbounds nuw %struct.rlRenderBatch, ptr %66, i32 0, i32 4
  %68 = load i32, ptr %67, align 8
  %69 = sub nsw i32 %68, 1
  %70 = sext i32 %69 to i64
  %71 = getelementptr inbounds %struct.rlDrawCall, ptr %65, i64 %70
  %72 = getelementptr inbounds nuw %struct.rlDrawCall, ptr %71, i32 0, i32 1
  %73 = load i32, ptr %72, align 4
  %74 = icmp slt i32 %73, 4
  br i1 %74, label %75, label %87

75:                                               ; preds = %62
  %76 = load ptr, ptr @RLGL, align 8
  %77 = getelementptr inbounds nuw %struct.rlRenderBatch, ptr %76, i32 0, i32 3
  %78 = load ptr, ptr %77, align 8
  %79 = load ptr, ptr @RLGL, align 8
  %80 = getelementptr inbounds nuw %struct.rlRenderBatch, ptr %79, i32 0, i32 4
  %81 = load i32, ptr %80, align 8
  %82 = sub nsw i32 %81, 1
  %83 = sext i32 %82 to i64
  %84 = getelementptr inbounds %struct.rlDrawCall, ptr %78, i64 %83
  %85 = getelementptr inbounds nuw %struct.rlDrawCall, ptr %84, i32 0, i32 1
  %86 = load i32, ptr %85, align 4
  br label %100

87:                                               ; preds = %62
  %88 = load ptr, ptr @RLGL, align 8
  %89 = getelementptr inbounds nuw %struct.rlRenderBatch, ptr %88, i32 0, i32 3
  %90 = load ptr, ptr %89, align 8
  %91 = load ptr, ptr @RLGL, align 8
  %92 = getelementptr inbounds nuw %struct.rlRenderBatch, ptr %91, i32 0, i32 4
  %93 = load i32, ptr %92, align 8
  %94 = sub nsw i32 %93, 1
  %95 = sext i32 %94 to i64
  %96 = getelementptr inbounds %struct.rlDrawCall, ptr %90, i64 %95
  %97 = getelementptr inbounds nuw %struct.rlDrawCall, ptr %96, i32 0, i32 1
  %98 = load i32, ptr %97, align 4
  %99 = srem i32 %98, 4
  br label %100

100:                                              ; preds = %87, %75
  %101 = phi i32 [ %86, %75 ], [ %99, %87 ]
  %102 = load ptr, ptr @RLGL, align 8
  %103 = getelementptr inbounds nuw %struct.rlRenderBatch, ptr %102, i32 0, i32 3
  %104 = load ptr, ptr %103, align 8
  %105 = load ptr, ptr @RLGL, align 8
  %106 = getelementptr inbounds nuw %struct.rlRenderBatch, ptr %105, i32 0, i32 4
  %107 = load i32, ptr %106, align 8
  %108 = sub nsw i32 %107, 1
  %109 = sext i32 %108 to i64
  %110 = getelementptr inbounds %struct.rlDrawCall, ptr %104, i64 %109
  %111 = getelementptr inbounds nuw %struct.rlDrawCall, ptr %110, i32 0, i32 2
  store i32 %101, ptr %111, align 4
  br label %177

112:                                              ; preds = %49
  %113 = load ptr, ptr @RLGL, align 8
  %114 = getelementptr inbounds nuw %struct.rlRenderBatch, ptr %113, i32 0, i32 3
  %115 = load ptr, ptr %114, align 8
  %116 = load ptr, ptr @RLGL, align 8
  %117 = getelementptr inbounds nuw %struct.rlRenderBatch, ptr %116, i32 0, i32 4
  %118 = load i32, ptr %117, align 8
  %119 = sub nsw i32 %118, 1
  %120 = sext i32 %119 to i64
  %121 = getelementptr inbounds %struct.rlDrawCall, ptr %115, i64 %120
  %122 = getelementptr inbounds nuw %struct.rlDrawCall, ptr %121, i32 0, i32 0
  %123 = load i32, ptr %122, align 4
  %124 = icmp eq i32 %123, 4
  br i1 %124, label %125, label %165

125:                                              ; preds = %112
  %126 = load ptr, ptr @RLGL, align 8
  %127 = getelementptr inbounds nuw %struct.rlRenderBatch, ptr %126, i32 0, i32 3
  %128 = load ptr, ptr %127, align 8
  %129 = load ptr, ptr @RLGL, align 8
  %130 = getelementptr inbounds nuw %struct.rlRenderBatch, ptr %129, i32 0, i32 4
  %131 = load i32, ptr %130, align 8
  %132 = sub nsw i32 %131, 1
  %133 = sext i32 %132 to i64
  %134 = getelementptr inbounds %struct.rlDrawCall, ptr %128, i64 %133
  %135 = getelementptr inbounds nuw %struct.rlDrawCall, ptr %134, i32 0, i32 1
  %136 = load i32, ptr %135, align 4
  %137 = icmp slt i32 %136, 4
  br i1 %137, label %138, label %139

138:                                              ; preds = %125
  br label %153

139:                                              ; preds = %125
  %140 = load ptr, ptr @RLGL, align 8
  %141 = getelementptr inbounds nuw %struct.rlRenderBatch, ptr %140, i32 0, i32 3
  %142 = load ptr, ptr %141, align 8
  %143 = load ptr, ptr @RLGL, align 8
  %144 = getelementptr inbounds nuw %struct.rlRenderBatch, ptr %143, i32 0, i32 4
  %145 = load i32, ptr %144, align 8
  %146 = sub nsw i32 %145, 1
  %147 = sext i32 %146 to i64
  %148 = getelementptr inbounds %struct.rlDrawCall, ptr %142, i64 %147
  %149 = getelementptr inbounds nuw %struct.rlDrawCall, ptr %148, i32 0, i32 1
  %150 = load i32, ptr %149, align 4
  %151 = srem i32 %150, 4
  %152 = sub nsw i32 4, %151
  br label %153

153:                                              ; preds = %139, %138
  %154 = phi i32 [ 1, %138 ], [ %152, %139 ]
  %155 = load ptr, ptr @RLGL, align 8
  %156 = getelementptr inbounds nuw %struct.rlRenderBatch, ptr %155, i32 0, i32 3
  %157 = load ptr, ptr %156, align 8
  %158 = load ptr, ptr @RLGL, align 8
  %159 = getelementptr inbounds nuw %struct.rlRenderBatch, ptr %158, i32 0, i32 4
  %160 = load i32, ptr %159, align 8
  %161 = sub nsw i32 %160, 1
  %162 = sext i32 %161 to i64
  %163 = getelementptr inbounds %struct.rlDrawCall, ptr %157, i64 %162
  %164 = getelementptr inbounds nuw %struct.rlDrawCall, ptr %163, i32 0, i32 2
  store i32 %154, ptr %164, align 4
  br label %176

165:                                              ; preds = %112
  %166 = load ptr, ptr @RLGL, align 8
  %167 = getelementptr inbounds nuw %struct.rlRenderBatch, ptr %166, i32 0, i32 3
  %168 = load ptr, ptr %167, align 8
  %169 = load ptr, ptr @RLGL, align 8
  %170 = getelementptr inbounds nuw %struct.rlRenderBatch, ptr %169, i32 0, i32 4
  %171 = load i32, ptr %170, align 8
  %172 = sub nsw i32 %171, 1
  %173 = sext i32 %172 to i64
  %174 = getelementptr inbounds %struct.rlDrawCall, ptr %168, i64 %173
  %175 = getelementptr inbounds nuw %struct.rlDrawCall, ptr %174, i32 0, i32 2
  store i32 0, ptr %175, align 4
  br label %176

176:                                              ; preds = %165, %153
  br label %177

177:                                              ; preds = %176, %100
  %178 = load ptr, ptr @RLGL, align 8
  %179 = getelementptr inbounds nuw %struct.rlRenderBatch, ptr %178, i32 0, i32 3
  %180 = load ptr, ptr %179, align 8
  %181 = load ptr, ptr @RLGL, align 8
  %182 = getelementptr inbounds nuw %struct.rlRenderBatch, ptr %181, i32 0, i32 4
  %183 = load i32, ptr %182, align 8
  %184 = sub nsw i32 %183, 1
  %185 = sext i32 %184 to i64
  %186 = getelementptr inbounds %struct.rlDrawCall, ptr %180, i64 %185
  %187 = getelementptr inbounds nuw %struct.rlDrawCall, ptr %186, i32 0, i32 2
  %188 = load i32, ptr %187, align 4
  %189 = call zeroext i1 @rlCheckRenderBatchLimit(i32 noundef %188)
  br i1 %189, label %208, label %190

190:                                              ; preds = %177
  %191 = load ptr, ptr @RLGL, align 8
  %192 = getelementptr inbounds nuw %struct.rlRenderBatch, ptr %191, i32 0, i32 3
  %193 = load ptr, ptr %192, align 8
  %194 = load ptr, ptr @RLGL, align 8
  %195 = getelementptr inbounds nuw %struct.rlRenderBatch, ptr %194, i32 0, i32 4
  %196 = load i32, ptr %195, align 8
  %197 = sub nsw i32 %196, 1
  %198 = sext i32 %197 to i64
  %199 = getelementptr inbounds %struct.rlDrawCall, ptr %193, i64 %198
  %200 = getelementptr inbounds nuw %struct.rlDrawCall, ptr %199, i32 0, i32 2
  %201 = load i32, ptr %200, align 4
  %202 = load i32, ptr getelementptr inbounds nuw (%struct.rlglData, ptr @RLGL, i32 0, i32 2), align 8
  %203 = add nsw i32 %202, %201
  store i32 %203, ptr getelementptr inbounds nuw (%struct.rlglData, ptr @RLGL, i32 0, i32 2), align 8
  %204 = load ptr, ptr @RLGL, align 8
  %205 = getelementptr inbounds nuw %struct.rlRenderBatch, ptr %204, i32 0, i32 4
  %206 = load i32, ptr %205, align 8
  %207 = add nsw i32 %206, 1
  store i32 %207, ptr %205, align 8
  br label %208

208:                                              ; preds = %190, %177
  br label %209

209:                                              ; preds = %208, %36
  %210 = load ptr, ptr @RLGL, align 8
  %211 = getelementptr inbounds nuw %struct.rlRenderBatch, ptr %210, i32 0, i32 4
  %212 = load i32, ptr %211, align 8
  %213 = icmp sge i32 %212, 256
  br i1 %213, label %214, label %216

214:                                              ; preds = %209
  %215 = load ptr, ptr @RLGL, align 8
  call void @rlDrawRenderBatch(ptr noundef %215)
  br label %216

216:                                              ; preds = %214, %209
  %217 = load i32, ptr %2, align 4
  %218 = load ptr, ptr @RLGL, align 8
  %219 = getelementptr inbounds nuw %struct.rlRenderBatch, ptr %218, i32 0, i32 3
  %220 = load ptr, ptr %219, align 8
  %221 = load ptr, ptr @RLGL, align 8
  %222 = getelementptr inbounds nuw %struct.rlRenderBatch, ptr %221, i32 0, i32 4
  %223 = load i32, ptr %222, align 8
  %224 = sub nsw i32 %223, 1
  %225 = sext i32 %224 to i64
  %226 = getelementptr inbounds %struct.rlDrawCall, ptr %220, i64 %225
  %227 = getelementptr inbounds nuw %struct.rlDrawCall, ptr %226, i32 0, i32 3
  store i32 %217, ptr %227, align 4
  %228 = load ptr, ptr @RLGL, align 8
  %229 = getelementptr inbounds nuw %struct.rlRenderBatch, ptr %228, i32 0, i32 3
  %230 = load ptr, ptr %229, align 8
  %231 = load ptr, ptr @RLGL, align 8
  %232 = getelementptr inbounds nuw %struct.rlRenderBatch, ptr %231, i32 0, i32 4
  %233 = load i32, ptr %232, align 8
  %234 = sub nsw i32 %233, 1
  %235 = sext i32 %234 to i64
  %236 = getelementptr inbounds %struct.rlDrawCall, ptr %230, i64 %235
  %237 = getelementptr inbounds nuw %struct.rlDrawCall, ptr %236, i32 0, i32 1
  store i32 0, ptr %237, align 4
  br label %238

238:                                              ; preds = %216, %22
  br label %239

239:                                              ; preds = %238, %21
  ret void
}