; Function Attrs: nounwind uwtable
define void @rlSetTexture(i32 noundef %0) local_unnamed_addr #0 {
  %2 = icmp eq i32 %0, 0
  br i1 %2, label %3, label %15

3:                                                ; preds = %1
  %4 = load i32, ptr getelementptr inbounds nuw (i8, ptr @RLGL, i64 40), align 8
  %5 = load ptr, ptr @RLGL, align 8
  %6 = getelementptr inbounds nuw i8, ptr %5, i64 8
  %7 = load ptr, ptr %6, align 8
  %8 = getelementptr inbounds nuw i8, ptr %5, i64 4
  %9 = load i32, ptr %8, align 4
  %10 = sext i32 %9 to i64
  %11 = getelementptr inbounds %struct.rlVertexBuffer, ptr %7, i64 %10
  %12 = load i32, ptr %11, align 8
  %13 = shl nsw i32 %12, 2
  %.not5 = icmp slt i32 %4, %13
  br i1 %.not5, label %103, label %14

14:                                               ; preds = %3
  tail call void @rlDrawRenderBatch(ptr noundef nonnull %5)
  br label %103

15:                                               ; preds = %1
  %16 = load ptr, ptr @RLGL, align 8
  %17 = getelementptr inbounds nuw i8, ptr %16, i64 16
  %18 = load ptr, ptr %17, align 8
  %19 = getelementptr inbounds nuw i8, ptr %16, i64 24
  %20 = load i32, ptr %19, align 8
  %21 = sext i32 %20 to i64
  %22 = getelementptr %struct.rlDrawCall, ptr %18, i64 %21
  %23 = getelementptr i8, ptr %22, i64 -16
  %24 = getelementptr i8, ptr %22, i64 -4
  %25 = load i32, ptr %24, align 4
  %.not = icmp eq i32 %25, %0
  br i1 %.not, label %103, label %26

26:                                               ; preds = %15
  %27 = getelementptr i8, ptr %22, i64 -12
  %28 = load i32, ptr %27, align 4
  %29 = icmp sgt i32 %28, 0
  br i1 %29, label %30, label %82

30:                                               ; preds = %26
  %31 = load i32, ptr %23, align 4
  switch i32 %31, label %39 [
    i32 1, label %32
    i32 4, label %34
  ]

32:                                               ; preds = %30
  %33 = and i32 %28, 3
  br label %39

34:                                               ; preds = %30
  %35 = icmp samesign ult i32 %28, 4
  %36 = and i32 %28, 3
  %37 = sub nuw nsw i32 4, %36
  %38 = select i1 %35, i32 1, i32 %37
  br label %39

39:                                               ; preds = %30, %34, %32
  %.sink = phi i32 [ %38, %34 ], [ %33, %32 ], [ 0, %30 ]
  %40 = getelementptr i8, ptr %22, i64 -8
  store i32 %.sink, ptr %40, align 4
  %41 = load ptr, ptr @RLGL, align 8
  %42 = getelementptr inbounds nuw i8, ptr %41, i64 16
  %43 = load ptr, ptr %42, align 8
  %44 = getelementptr inbounds nuw i8, ptr %41, i64 24
  %45 = load i32, ptr %44, align 8
  %46 = sext i32 %45 to i64
  %47 = getelementptr %struct.rlDrawCall, ptr %43, i64 %46
  %48 = getelementptr i8, ptr %47, i64 -8
  %49 = load i32, ptr %48, align 4
  %50 = load i32, ptr getelementptr inbounds nuw (i8, ptr @RLGL, i64 40), align 8
  %51 = add nsw i32 %50, %49
  %52 = getelementptr inbounds nuw i8, ptr %41, i64 8
  %53 = load ptr, ptr %52, align 8
  %54 = getelementptr inbounds nuw i8, ptr %41, i64 4
  %55 = load i32, ptr %54, align 4
  %56 = sext i32 %55 to i64
  %57 = getelementptr inbounds %struct.rlVertexBuffer, ptr %53, i64 %56
  %58 = load i32, ptr %57, align 8
  %59 = shl nsw i32 %58, 2
  %.not.i.not = icmp slt i32 %51, %59
  br i1 %.not.i.not, label %rlCheckRenderBatchLimit.exit, label %rlCheckRenderBatchLimit.exit.thread

rlCheckRenderBatchLimit.exit.thread:              ; preds = %39
  %60 = getelementptr i8, ptr %47, i64 -16
  %61 = load i32, ptr %60, align 4
  %62 = getelementptr i8, ptr %47, i64 -4
  %63 = load i32, ptr %62, align 4
  tail call void @rlDrawRenderBatch(ptr noundef nonnull %41)
  %64 = load ptr, ptr @RLGL, align 8
  %65 = getelementptr inbounds nuw i8, ptr %64, i64 16
  %66 = load ptr, ptr %65, align 8
  %67 = getelementptr inbounds nuw i8, ptr %64, i64 24
  %68 = load i32, ptr %67, align 8
  %69 = sext i32 %68 to i64
  %70 = getelementptr %struct.rlDrawCall, ptr %66, i64 %69
  %71 = getelementptr i8, ptr %70, i64 -16
  store i32 %61, ptr %71, align 4
  %72 = load ptr, ptr @RLGL, align 8
  %73 = getelementptr inbounds nuw i8, ptr %72, i64 16
  %74 = load ptr, ptr %73, align 8
  %75 = getelementptr inbounds nuw i8, ptr %72, i64 24
  %76 = load i32, ptr %75, align 8
  %77 = sext i32 %76 to i64
  %78 = getelementptr %struct.rlDrawCall, ptr %74, i64 %77
  %79 = getelementptr i8, ptr %78, i64 -4
  store i32 %63, ptr %79, align 4
  %.pre = load ptr, ptr @RLGL, align 8
  %.phi.trans.insert = getelementptr inbounds nuw i8, ptr %.pre, i64 24
  %.pre6 = load i32, ptr %.phi.trans.insert, align 8
  br label %82

rlCheckRenderBatchLimit.exit:                     ; preds = %39
  store i32 %51, ptr getelementptr inbounds nuw (i8, ptr @RLGL, i64 40), align 8
  %80 = load i32, ptr %44, align 8
  %81 = add nsw i32 %80, 1
  store i32 %81, ptr %44, align 8
  br label %82

82:                                               ; preds = %rlCheckRenderBatchLimit.exit.thread, %rlCheckRenderBatchLimit.exit, %26
  %83 = phi i32 [ %.pre6, %rlCheckRenderBatchLimit.exit.thread ], [ %81, %rlCheckRenderBatchLimit.exit ], [ %20, %26 ]
  %84 = phi ptr [ %.pre, %rlCheckRenderBatchLimit.exit.thread ], [ %41, %rlCheckRenderBatchLimit.exit ], [ %16, %26 ]
  %85 = icmp sgt i32 %83, 255
  br i1 %85, label %86, label %87

86:                                               ; preds = %82
  tail call void @rlDrawRenderBatch(ptr noundef nonnull %84)
  %.pre7 = load ptr, ptr @RLGL, align 8
  %.phi.trans.insert8 = getelementptr inbounds nuw i8, ptr %.pre7, i64 24
  %.pre9 = load i32, ptr %.phi.trans.insert8, align 8
  br label %87

87:                                               ; preds = %86, %82
  %88 = phi i32 [ %.pre9, %86 ], [ %83, %82 ]
  %89 = phi ptr [ %.pre7, %86 ], [ %84, %82 ]
  %90 = getelementptr inbounds nuw i8, ptr %89, i64 16
  %91 = load ptr, ptr %90, align 8
  %92 = sext i32 %88 to i64
  %93 = getelementptr %struct.rlDrawCall, ptr %91, i64 %92
  %94 = getelementptr i8, ptr %93, i64 -4
  store i32 %0, ptr %94, align 4
  %95 = load ptr, ptr @RLGL, align 8
  %96 = getelementptr inbounds nuw i8, ptr %95, i64 16
  %97 = load ptr, ptr %96, align 8
  %98 = getelementptr inbounds nuw i8, ptr %95, i64 24
  %99 = load i32, ptr %98, align 8
  %100 = sext i32 %99 to i64
  %101 = getelementptr %struct.rlDrawCall, ptr %97, i64 %100
  %102 = getelementptr i8, ptr %101, i64 -12
  store i32 0, ptr %102, align 4
  br label %103

103:                                              ; preds = %15, %87, %3, %14
  ret void
}